target datalayout = "e-m:e-p270:32:32-p271:32:32-p272:64:64-i64:64-i128:128-f80:128-n8:16:32:64-S128"
target triple = "x86_64-pc-linux-gnu"

%struct.__sigset_t = type { [16 x i64] }

@PyExc_OSError = external global ptr, align 8

; Function Attrs: nounwind uwtable
define internal ptr @signal_valid_signals_impl(ptr noundef %0) #0 {
  %2 = alloca ptr, align 8
  %3 = alloca ptr, align 8
  %4 = alloca %struct.__sigset_t, align 8
  %5 = alloca i32, align 4
  store ptr %0, ptr %3, align 8, !tbaa !179
  call void @llvm.lifetime.start.p0(i64 128, ptr %4) #10
  %6 = call i32 @sigemptyset(ptr noundef %4) #10
  %7 = icmp ne i32 %6, 0
  br i1 %7, label %11, label %8

8:                                                ; preds = %1
  %9 = call i32 @sigfillset(ptr noundef %4) #10
  %10 = icmp ne i32 %9, 0
  br i1 %10, label %11, label %14

11:                                               ; preds = %8, %1
  %12 = load ptr, ptr @PyExc_OSError, align 8, !tbaa !179
  %13 = call ptr @PyErr_SetFromErrno(ptr noundef %12)
  store ptr %13, ptr %2, align 8
  store i32 1, ptr %5, align 4
  br label %16

14:                                               ; preds = %8
  %15 = call ptr @sigset_to_set(ptr noundef byval(%struct.__sigset_t) align 8 %4)
  store ptr %15, ptr %2, align 8
  store i32 1, ptr %5, align 4
  br label %16

16:                                               ; preds = %14, %11
  call void @llvm.lifetime.end.p0(i64 128, ptr %4) #10
  %17 = load ptr, ptr %2, align 8
  ret ptr %17
}

; Function Attrs: nounwind uwtable
define internal ptr @signal_valid_signals(ptr noundef %0, ptr noundef %1) #0 {
  %3 = alloca ptr, align 8
  %4 = alloca ptr, align 8
  store ptr %0, ptr %3, align 8, !tbaa !179
  store ptr %1, ptr %4, align 8, !tbaa !179
  %5 = load ptr, ptr %3, align 8, !tbaa !179
  %6 = call ptr @signal_valid_signals_impl(ptr noundef %5)
  ret ptr %6
}