; Function Attrs: nounwind uwtable
define internal ptr @signal_valid_signals(ptr readnone captures(none) %0, ptr readnone captures(none) %1) #2 {
  %3 = alloca %struct.__sigset_t, align 8
  call void @llvm.lifetime.start.p0(i64 128, ptr nonnull %3) #15
  %4 = call i32 @sigemptyset(ptr noundef nonnull %3) #15
  %.not.i = icmp eq i32 %4, 0
  br i1 %.not.i, label %5, label %7

5:                                                ; preds = %2
  %6 = call i32 @sigfillset(ptr noundef nonnull %3) #15
  %.not1.i = icmp eq i32 %6, 0
  br i1 %.not1.i, label %10, label %7

7:                                                ; preds = %5, %2
  %8 = load ptr, ptr @PyExc_OSError, align 8, !tbaa !176
  %9 = call ptr @PyErr_SetFromErrno(ptr noundef %8) #15
  br label %signal_valid_signals_impl.exit

10:                                               ; preds = %5
  %11 = call fastcc ptr @sigset_to_set(ptr noundef nonnull byval(%struct.__sigset_t) align 8 %3)
  br label %signal_valid_signals_impl.exit

signal_valid_signals_impl.exit:                   ; preds = %7, %10
  %.0.i = phi ptr [ %9, %7 ], [ %11, %10 ]
  call void @llvm.lifetime.end.p0(i64 128, ptr nonnull %3) #15
  ret ptr %.0.i
}